target datalayout = "e-m:e-p270:32:32-p271:32:32-p272:64:64-i64:64-i128:128-f80:128-n8:16:32:64-S128"
target triple = "x86_64-pc-linux-gnu"

%struct._zend_phar_globals = type { %struct._zend_array, %struct._zend_array, ptr, %struct._zend_array, i32, i32, ptr, i32, i32, i32, i32, i8, i8, i8, i32, i32, i32, i32, ptr, ptr, ptr, ptr, ptr, ptr, ptr, ptr, ptr, ptr, ptr, ptr, ptr, ptr, ptr, ptr, ptr, ptr, ptr, ptr, ptr, ptr, ptr, i32, i32, ptr, i32, ptr, i32, ptr, i32, ptr, %struct._zend_array }
%struct._zend_array = type { %struct._zend_refcounted_h, %union.anon.0, i32, %union.anon.1, i32, i32, i32, i32, i64, ptr }
%struct._zend_refcounted_h = type { i32, %union.anon }
%union.anon = type { i32 }
%union.anon.0 = type { i32 }
%union.anon.1 = type { ptr }
%struct._zend_ini_entry = type { ptr, ptr, ptr, ptr, ptr, ptr, ptr, ptr, i32, i8, i8, i8 }
%struct._zend_string = type { %struct._zend_refcounted_h, i64, i64, [1 x i8] }

@phar_globals = hidden global %struct._zend_phar_globals zeroinitializer, align 8

; Function Attrs: nounwind uwtable
define hidden i32 @phar_ini_modify_handler(ptr noundef %0, ptr noundef %1, ptr noundef %2, ptr noundef %3, ptr noundef %4, i32 noundef %5) #0 {
  %7 = alloca i32, align 4
  %8 = alloca ptr, align 8
  %9 = alloca ptr, align 8
  %10 = alloca ptr, align 8
  %11 = alloca ptr, align 8
  %12 = alloca ptr, align 8
  %13 = alloca i32, align 4
  %14 = alloca i8, align 1
  %15 = alloca i8, align 1
  store ptr %0, ptr %8, align 8
  store ptr %1, ptr %9, align 8
  store ptr %2, ptr %10, align 8
  store ptr %3, ptr %11, align 8
  store ptr %4, ptr %12, align 8
  store i32 %5, ptr %13, align 4
  %16 = load ptr, ptr %8, align 8
  %17 = getelementptr inbounds %struct._zend_ini_entry, ptr %16, i32 0, i32 0
  %18 = load ptr, ptr %17, align 8
  %19 = getelementptr inbounds %struct._zend_string, ptr %18, i32 0, i32 2
  %20 = load i64, ptr %19, align 8
  %21 = icmp eq i64 %20, 13
  br i1 %21, label %22, label %26

22:                                               ; preds = %6
  %23 = load i8, ptr getelementptr inbounds (%struct._zend_phar_globals, ptr @phar_globals, i32 0, i32 11), align 8
  %24 = trunc i8 %23 to i1
  %25 = zext i1 %24 to i8
  store i8 %25, ptr %14, align 1
  br label %30

26:                                               ; preds = %6
  %27 = load i8, ptr getelementptr inbounds (%struct._zend_phar_globals, ptr @phar_globals, i32 0, i32 12), align 1
  %28 = trunc i8 %27 to i1
  %29 = zext i1 %28 to i8
  store i8 %29, ptr %14, align 1
  br label %30

30:                                               ; preds = %26, %22
  %31 = load ptr, ptr %9, align 8
  %32 = call zeroext i1 @zend_ini_parse_bool(ptr noundef %31)
  %33 = zext i1 %32 to i8
  store i8 %33, ptr %15, align 1
  %34 = load i32, ptr %13, align 4
  %35 = icmp eq i32 %34, 1
  br i1 %35, label %36, label %52

36:                                               ; preds = %30
  %37 = load ptr, ptr %8, align 8
  %38 = getelementptr inbounds %struct._zend_ini_entry, ptr %37, i32 0, i32 0
  %39 = load ptr, ptr %38, align 8
  %40 = getelementptr inbounds %struct._zend_string, ptr %39, i32 0, i32 2
  %41 = load i64, ptr %40, align 8
  %42 = icmp eq i64 %41, 13
  br i1 %42, label %43, label %47

43:                                               ; preds = %36
  %44 = load i8, ptr %15, align 1
  %45 = trunc i8 %44 to i1
  %46 = zext i1 %45 to i8
  store i8 %46, ptr getelementptr inbounds (%struct._zend_phar_globals, ptr @phar_globals, i32 0, i32 11), align 8
  br label %51

47:                                               ; preds = %36
  %48 = load i8, ptr %15, align 1
  %49 = trunc i8 %48 to i1
  %50 = zext i1 %49 to i8
  store i8 %50, ptr getelementptr inbounds (%struct._zend_phar_globals, ptr @phar_globals, i32 0, i32 12), align 1
  br label %51

51:                                               ; preds = %47, %43
  br label %60

52:                                               ; preds = %30
  %53 = load i8, ptr %14, align 1
  %54 = trunc i8 %53 to i1
  br i1 %54, label %55, label %59

55:                                               ; preds = %52
  %56 = load i8, ptr %15, align 1
  %57 = trunc i8 %56 to i1
  br i1 %57, label %59, label %58

58:                                               ; preds = %55
  store i32 -1, ptr %7, align 4
  br label %84

59:                                               ; preds = %55, %52
  br label %60

60:                                               ; preds = %59, %51
  %61 = load ptr, ptr %8, align 8
  %62 = getelementptr inbounds %struct._zend_ini_entry, ptr %61, i32 0, i32 0
  %63 = load ptr, ptr %62, align 8
  %64 = getelementptr inbounds %struct._zend_string, ptr %63, i32 0, i32 2
  %65 = load i64, ptr %64, align 8
  %66 = icmp eq i64 %65, 13
  br i1 %66, label %67, label %79

67:                                               ; preds = %60
  %68 = load i8, ptr %15, align 1
  %69 = trunc i8 %68 to i1
  %70 = zext i1 %69 to i32
  store i32 %70, ptr getelementptr inbounds (%struct._zend_phar_globals, ptr @phar_globals, i32 0, i32 5), align 4
  %71 = load i32, ptr getelementptr inbounds (%struct._zend_phar_globals, ptr @phar_globals, i32 0, i32 14), align 4
  %72 = icmp ne i32 %71, 0
  br i1 %72, label %73, label %78

73:                                               ; preds = %67
  %74 = load i32, ptr getelementptr inbounds (%struct._zend_phar_globals, ptr @phar_globals, i32 0, i32 1, i32 1), align 8
  %75 = and i32 %74, 8
  %76 = icmp eq i32 %75, 0
  br i1 %76, label %77, label %78

77:                                               ; preds = %73
  call void @zend_hash_apply_with_argument(ptr noundef getelementptr inbounds (%struct._zend_phar_globals, ptr @phar_globals, i32 0, i32 1), ptr noundef @phar_set_writeable_bit, ptr noundef %15)
  br label %78

78:                                               ; preds = %77, %73, %67
  br label %83

79:                                               ; preds = %60
  %80 = load i8, ptr %15, align 1
  %81 = trunc i8 %80 to i1
  %82 = zext i1 %81 to i32
  store i32 %82, ptr getelementptr inbounds (%struct._zend_phar_globals, ptr @phar_globals, i32 0, i32 15), align 8
  br label %83

83:                                               ; preds = %79, %78
  store i32 0, ptr %7, align 4
  br label %84

84:                                               ; preds = %83, %58
  %85 = load i32, ptr %7, align 4
  ret i32 %85
}