; Function Attrs: nounwind uwtable
define hidden noundef i32 @phar_ini_modify_handler(ptr nocapture noundef readonly %0, ptr noundef %1, ptr nocapture readnone %2, ptr nocapture readnone %3, ptr nocapture readnone %4, i32 noundef %5) #0 {
  %7 = alloca i8, align 1
  %8 = load ptr, ptr %0, align 8
  %9 = getelementptr inbounds i8, ptr %8, i64 16
  %10 = load i64, ptr %9, align 8
  %.val = load i8, ptr getelementptr inbounds (%struct._zend_phar_globals, ptr @phar_globals, i64 0, i32 11), align 8
  %.val8 = load i8, ptr getelementptr inbounds (%struct._zend_phar_globals, ptr @phar_globals, i64 0, i32 12), align 1
  %11 = tail call zeroext i1 @zend_ini_parse_bool(ptr noundef %1) #23
  %12 = zext i1 %11 to i8
  store i8 %12, ptr %7, align 1
  %13 = icmp eq i32 %5, 1
  br i1 %13, label %14, label %21

14:                                               ; preds = %6
  %15 = load ptr, ptr %0, align 8
  %16 = getelementptr inbounds i8, ptr %15, i64 16
  %17 = load i64, ptr %16, align 8
  %18 = icmp eq i64 %17, 13
  br i1 %18, label %19, label %20

19:                                               ; preds = %14
  store i8 %12, ptr getelementptr inbounds (%struct._zend_phar_globals, ptr @phar_globals, i64 0, i32 11), align 8
  br label %24

20:                                               ; preds = %14
  store i8 %12, ptr getelementptr inbounds (%struct._zend_phar_globals, ptr @phar_globals, i64 0, i32 12), align 1
  br label %24

21:                                               ; preds = %6
  %22 = icmp eq i64 %10, 13
  %.0.in = select i1 %22, i8 %.val, i8 %.val8
  %23 = and i8 %.0.in, 1
  %.not = icmp eq i8 %23, 0
  %brmerge = select i1 %.not, i1 true, i1 %11
  br i1 %brmerge, label %24, label %38

24:                                               ; preds = %21, %19, %20
  %25 = load ptr, ptr %0, align 8
  %26 = getelementptr inbounds i8, ptr %25, i64 16
  %27 = load i64, ptr %26, align 8
  %28 = icmp eq i64 %27, 13
  %29 = zext i1 %11 to i32
  br i1 %28, label %30, label %37

30:                                               ; preds = %24
  store i32 %29, ptr getelementptr inbounds (%struct._zend_phar_globals, ptr @phar_globals, i64 0, i32 5), align 4
  %31 = load i32, ptr getelementptr inbounds (%struct._zend_phar_globals, ptr @phar_globals, i64 0, i32 14), align 4
  %.not7 = icmp eq i32 %31, 0
  br i1 %.not7, label %38, label %32

32:                                               ; preds = %30
  %33 = load i32, ptr getelementptr inbounds (%struct._zend_phar_globals, ptr @phar_globals, i64 0, i32 1, i32 1), align 8
  %34 = and i32 %33, 8
  %35 = icmp eq i32 %34, 0
  br i1 %35, label %36, label %38

36:                                               ; preds = %32
  call void @zend_hash_apply_with_argument(ptr noundef nonnull getelementptr inbounds (%struct._zend_phar_globals, ptr @phar_globals, i64 0, i32 1), ptr noundef nonnull @phar_set_writeable_bit, ptr noundef nonnull %7) #23
  br label %38

37:                                               ; preds = %24
  store i32 %29, ptr getelementptr inbounds (%struct._zend_phar_globals, ptr @phar_globals, i64 0, i32 15), align 8
  br label %38

38:                                               ; preds = %37, %36, %32, %30, %21
  %.06 = phi i32 [ -1, %21 ], [ 0, %30 ], [ 0, %32 ], [ 0, %36 ], [ 0, %37 ]
  ret i32 %.06
}